; Function Attrs: nounwind uwtable
define noundef ptr @l___private_Std_Tactic_BVDecide_LRAT_Internal_Formula_RupAddSound_0__Std_Tactic_BVDecide_LRAT_Internal_DefaultClause_reduce__fold__fn_match__1_splitter___rarg(i8 noundef zeroext %0, ptr noundef %1, ptr noundef %2, ptr noundef %3, ptr noundef %4) local_unnamed_addr #0 {
  switch i8 %0, label %33 [
    i8 0, label %6
    i8 1, label %15
    i8 2, label %24
  ]

6:                                                ; preds = %5
  %7 = ptrtoint ptr %1 to i64
  %8 = and i64 %7, 1
  %.not22 = icmp eq i64 %8, 0
  br i1 %.not22, label %9, label %lean_inc.exit11

9:                                                ; preds = %6
  %.val.i = load i32, ptr %1, align 4, !tbaa !4
  %10 = icmp sgt i32 %.val.i, 0
  br i1 %10, label %11, label %13, !prof !9

11:                                               ; preds = %9
  %12 = add nuw i32 %.val.i, 1
  store i32 %12, ptr %1, align 4, !tbaa !4
  br label %lean_inc.exit11

13:                                               ; preds = %9
  %.not.i = icmp eq i32 %.val.i, 0
  br i1 %.not.i, label %lean_inc.exit11, label %14

14:                                               ; preds = %13
  tail call void @lean_inc_ref_cold(ptr noundef nonnull %1) #3
  br label %lean_inc.exit11

15:                                               ; preds = %5
  %16 = ptrtoint ptr %2 to i64
  %17 = and i64 %16, 1
  %.not21 = icmp eq i64 %17, 0
  br i1 %.not21, label %18, label %lean_inc.exit11

18:                                               ; preds = %15
  %.val.i12 = load i32, ptr %2, align 4, !tbaa !4
  %19 = icmp sgt i32 %.val.i12, 0
  br i1 %19, label %20, label %22, !prof !9

20:                                               ; preds = %18
  %21 = add nuw i32 %.val.i12, 1
  store i32 %21, ptr %2, align 4, !tbaa !4
  br label %lean_inc.exit11

22:                                               ; preds = %18
  %.not.i13 = icmp eq i32 %.val.i12, 0
  br i1 %.not.i13, label %lean_inc.exit11, label %23

23:                                               ; preds = %22
  tail call void @lean_inc_ref_cold(ptr noundef nonnull %2) #3
  br label %lean_inc.exit11

24:                                               ; preds = %5
  %25 = ptrtoint ptr %3 to i64
  %26 = and i64 %25, 1
  %.not = icmp eq i64 %26, 0
  br i1 %.not, label %27, label %lean_inc.exit11

27:                                               ; preds = %24
  %.val.i15 = load i32, ptr %3, align 4, !tbaa !4
  %28 = icmp sgt i32 %.val.i15, 0
  br i1 %28, label %29, label %31, !prof !9

29:                                               ; preds = %27
  %30 = add nuw i32 %.val.i15, 1
  store i32 %30, ptr %3, align 4, !tbaa !4
  br label %lean_inc.exit11

31:                                               ; preds = %27
  %.not.i16 = icmp eq i32 %.val.i15, 0
  br i1 %.not.i16, label %lean_inc.exit11, label %32

32:                                               ; preds = %31
  tail call void @lean_inc_ref_cold(ptr noundef nonnull %3) #3
  br label %lean_inc.exit11

33:                                               ; preds = %5
  %34 = ptrtoint ptr %4 to i64
  %35 = and i64 %34, 1
  %.not23 = icmp eq i64 %35, 0
  br i1 %.not23, label %36, label %lean_inc.exit11

36:                                               ; preds = %33
  %.val.i18 = load i32, ptr %4, align 4, !tbaa !4
  %37 = icmp sgt i32 %.val.i18, 0
  br i1 %37, label %38, label %40, !prof !9

38:                                               ; preds = %36
  %39 = add nuw i32 %.val.i18, 1
  store i32 %39, ptr %4, align 4, !tbaa !4
  br label %lean_inc.exit11

40:                                               ; preds = %36
  %.not.i19 = icmp eq i32 %.val.i18, 0
  br i1 %.not.i19, label %lean_inc.exit11, label %41

41:                                               ; preds = %40
  tail call void @lean_inc_ref_cold(ptr noundef nonnull %4) #3
  br label %lean_inc.exit11

lean_inc.exit11:                                  ; preds = %33, %38, %40, %41, %24, %29, %31, %32, %15, %20, %22, %23, %6, %11, %13, %14
  %.0 = phi ptr [ %1, %14 ], [ %1, %13 ], [ %1, %11 ], [ %1, %6 ], [ %2, %23 ], [ %2, %22 ], [ %2, %20 ], [ %2, %15 ], [ %3, %32 ], [ %3, %31 ], [ %3, %29 ], [ %3, %24 ], [ %4, %41 ], [ %4, %40 ], [ %4, %38 ], [ %4, %33 ]
  ret ptr %.0
}